target datalayout = "e-m:e-p270:32:32-p271:32:32-p272:64:64-i64:64-i128:128-f80:128-n8:16:32:64-S128"
target triple = "x86_64-pc-linux-gnu"

%struct.CPpmd7z_RangeDec = type { %struct.IPpmd7_RangeDec, i32, i32, ptr }
%struct.IPpmd7_RangeDec = type { ptr, ptr, ptr }
%struct.IByteIn = type { ptr }

; Function Attrs: nounwind uwtable
define internal void @Range_Normalize(ptr noundef %0) #0 {
  %2 = alloca ptr, align 8
  store ptr %0, ptr %2, align 8
  %3 = load ptr, ptr %2, align 8
  %4 = getelementptr inbounds %struct.CPpmd7z_RangeDec, ptr %3, i32 0, i32 1
  %5 = load i32, ptr %4, align 8
  %6 = icmp ult i32 %5, 16777216
  br i1 %6, label %7, label %56

7:                                                ; preds = %1
  %8 = load ptr, ptr %2, align 8
  %9 = getelementptr inbounds %struct.CPpmd7z_RangeDec, ptr %8, i32 0, i32 2
  %10 = load i32, ptr %9, align 4
  %11 = shl i32 %10, 8
  %12 = load ptr, ptr %2, align 8
  %13 = getelementptr inbounds %struct.CPpmd7z_RangeDec, ptr %12, i32 0, i32 3
  %14 = load ptr, ptr %13, align 8
  %15 = getelementptr inbounds %struct.IByteIn, ptr %14, i32 0, i32 0
  %16 = load ptr, ptr %15, align 8
  %17 = load ptr, ptr %2, align 8
  %18 = getelementptr inbounds %struct.CPpmd7z_RangeDec, ptr %17, i32 0, i32 3
  %19 = load ptr, ptr %18, align 8
  %20 = call zeroext i8 %16(ptr noundef %19)
  %21 = zext i8 %20 to i32
  %22 = or i32 %11, %21
  %23 = load ptr, ptr %2, align 8
  %24 = getelementptr inbounds %struct.CPpmd7z_RangeDec, ptr %23, i32 0, i32 2
  store i32 %22, ptr %24, align 4
  %25 = load ptr, ptr %2, align 8
  %26 = getelementptr inbounds %struct.CPpmd7z_RangeDec, ptr %25, i32 0, i32 1
  %27 = load i32, ptr %26, align 8
  %28 = shl i32 %27, 8
  store i32 %28, ptr %26, align 8
  %29 = load ptr, ptr %2, align 8
  %30 = getelementptr inbounds %struct.CPpmd7z_RangeDec, ptr %29, i32 0, i32 1
  %31 = load i32, ptr %30, align 8
  %32 = icmp ult i32 %31, 16777216
  br i1 %32, label %33, label %55

33:                                               ; preds = %7
  %34 = load ptr, ptr %2, align 8
  %35 = getelementptr inbounds %struct.CPpmd7z_RangeDec, ptr %34, i32 0, i32 2
  %36 = load i32, ptr %35, align 4
  %37 = shl i32 %36, 8
  %38 = load ptr, ptr %2, align 8
  %39 = getelementptr inbounds %struct.CPpmd7z_RangeDec, ptr %38, i32 0, i32 3
  %40 = load ptr, ptr %39, align 8
  %41 = getelementptr inbounds %struct.IByteIn, ptr %40, i32 0, i32 0
  %42 = load ptr, ptr %41, align 8
  %43 = load ptr, ptr %2, align 8
  %44 = getelementptr inbounds %struct.CPpmd7z_RangeDec, ptr %43, i32 0, i32 3
  %45 = load ptr, ptr %44, align 8
  %46 = call zeroext i8 %42(ptr noundef %45)
  %47 = zext i8 %46 to i32
  %48 = or i32 %37, %47
  %49 = load ptr, ptr %2, align 8
  %50 = getelementptr inbounds %struct.CPpmd7z_RangeDec, ptr %49, i32 0, i32 2
  store i32 %48, ptr %50, align 4
  %51 = load ptr, ptr %2, align 8
  %52 = getelementptr inbounds %struct.CPpmd7z_RangeDec, ptr %51, i32 0, i32 1
  %53 = load i32, ptr %52, align 8
  %54 = shl i32 %53, 8
  store i32 %54, ptr %52, align 8
  br label %55

55:                                               ; preds = %33, %7
  br label %56

56:                                               ; preds = %55, %1
  ret void
}

; Function Attrs: nounwind uwtable
define internal i32 @Range_DecodeBit(ptr noundef %0, i32 noundef %1) #0 {
  %3 = alloca ptr, align 8
  %4 = alloca i32, align 4
  %5 = alloca ptr, align 8
  %6 = alloca i32, align 4
  %7 = alloca i32, align 4
  store ptr %0, ptr %3, align 8
  store i32 %1, ptr %4, align 4
  %8 = load ptr, ptr %3, align 8
  store ptr %8, ptr %5, align 8
  %9 = load ptr, ptr %5, align 8
  %10 = getelementptr inbounds %struct.CPpmd7z_RangeDec, ptr %9, i32 0, i32 1
  %11 = load i32, ptr %10, align 8
  %12 = lshr i32 %11, 14
  %13 = load i32, ptr %4, align 4
  %14 = mul i32 %12, %13
  store i32 %14, ptr %6, align 4
  %15 = load ptr, ptr %5, align 8
  %16 = getelementptr inbounds %struct.CPpmd7z_RangeDec, ptr %15, i32 0, i32 2
  %17 = load i32, ptr %16, align 4
  %18 = load i32, ptr %6, align 4
  %19 = icmp ult i32 %17, %18
  br i1 %19, label %20, label %24

20:                                               ; preds = %2
  store i32 0, ptr %7, align 4
  %21 = load i32, ptr %6, align 4
  %22 = load ptr, ptr %5, align 8
  %23 = getelementptr inbounds %struct.CPpmd7z_RangeDec, ptr %22, i32 0, i32 1
  store i32 %21, ptr %23, align 8
  br label %35

24:                                               ; preds = %2
  store i32 1, ptr %7, align 4
  %25 = load i32, ptr %6, align 4
  %26 = load ptr, ptr %5, align 8
  %27 = getelementptr inbounds %struct.CPpmd7z_RangeDec, ptr %26, i32 0, i32 2
  %28 = load i32, ptr %27, align 4
  %29 = sub i32 %28, %25
  store i32 %29, ptr %27, align 4
  %30 = load i32, ptr %6, align 4
  %31 = load ptr, ptr %5, align 8
  %32 = getelementptr inbounds %struct.CPpmd7z_RangeDec, ptr %31, i32 0, i32 1
  %33 = load i32, ptr %32, align 8
  %34 = sub i32 %33, %30
  store i32 %34, ptr %32, align 8
  br label %35

35:                                               ; preds = %24, %20
  %36 = load ptr, ptr %5, align 8
  call void @Range_Normalize(ptr noundef %36)
  %37 = load i32, ptr %7, align 4
  ret i32 %37
}