; Function Attrs: nounwind uwtable
define internal noundef i32 @Range_DecodeBit(ptr nocapture noundef %0, i32 noundef %1) #0 {
  %3 = getelementptr inbounds i8, ptr %0, i64 24
  %4 = load i32, ptr %3, align 8
  %5 = lshr i32 %4, 14
  %6 = mul i32 %5, %1
  %7 = getelementptr inbounds i8, ptr %0, i64 28
  %8 = load i32, ptr %7, align 4
  %9 = icmp ult i32 %8, %6
  br i1 %9, label %13, label %10

10:                                               ; preds = %2
  %11 = sub i32 %8, %6
  store i32 %11, ptr %7, align 4
  %12 = sub i32 %4, %6
  br label %13

13:                                               ; preds = %2, %10
  %14 = phi i32 [ %11, %10 ], [ %8, %2 ]
  %storemerge = phi i32 [ %12, %10 ], [ %6, %2 ]
  %.0 = phi i32 [ 1, %10 ], [ 0, %2 ]
  store i32 %storemerge, ptr %3, align 8
  %15 = icmp ult i32 %storemerge, 16777216
  br i1 %15, label %16, label %Range_Normalize.exit

16:                                               ; preds = %13
  %17 = shl i32 %14, 8
  %18 = getelementptr inbounds i8, ptr %0, i64 32
  %19 = load ptr, ptr %18, align 8
  %20 = load ptr, ptr %19, align 8
  %21 = tail call zeroext i8 %20(ptr noundef nonnull %19) #5
  %22 = zext i8 %21 to i32
  %23 = or disjoint i32 %17, %22
  store i32 %23, ptr %7, align 4
  %24 = load i32, ptr %3, align 8
  %25 = shl i32 %24, 8
  store i32 %25, ptr %3, align 8
  %26 = icmp ult i32 %25, 16777216
  br i1 %26, label %27, label %Range_Normalize.exit

27:                                               ; preds = %16
  %28 = shl i32 %23, 8
  %29 = load ptr, ptr %18, align 8
  %30 = load ptr, ptr %29, align 8
  %31 = tail call zeroext i8 %30(ptr noundef nonnull %29) #5
  %32 = zext i8 %31 to i32
  %33 = or disjoint i32 %28, %32
  store i32 %33, ptr %7, align 4
  %34 = load i32, ptr %3, align 8
  %35 = shl i32 %34, 8
  store i32 %35, ptr %3, align 8
  br label %Range_Normalize.exit

Range_Normalize.exit:                             ; preds = %13, %16, %27
  ret i32 %.0
}